target datalayout = "e-m:e-p270:32:32-p271:32:32-p272:64:64-i64:64-i128:128-f80:128-n8:16:32:64-S128"
target triple = "x86_64-pc-linux-gnu"

%class.GCStatInfo = type <{ i64, i64, i64, ptr, ptr, i32, [4 x i8] }>
%class.MemoryUsage = type { i64, i64, i64, i64 }

; Function Attrs: mustprogress nounwind uwtable
define linkonce_odr hidden void @_ZN11MemoryUsageC2Ev(ptr noundef nonnull align 8 dereferenceable(32) %0) unnamed_addr #1 comdat align 2 {
  %2 = alloca ptr, align 8
  store ptr %0, ptr %2, align 8
  %3 = load ptr, ptr %2, align 8
  %4 = getelementptr inbounds %class.MemoryUsage, ptr %3, i32 0, i32 0
  store i64 0, ptr %4, align 8
  %5 = getelementptr inbounds %class.MemoryUsage, ptr %3, i32 0, i32 1
  store i64 0, ptr %5, align 8
  %6 = getelementptr inbounds %class.MemoryUsage, ptr %3, i32 0, i32 2
  store i64 0, ptr %6, align 8
  %7 = getelementptr inbounds %class.MemoryUsage, ptr %3, i32 0, i32 3
  store i64 0, ptr %7, align 8
  ret void
}

; Function Attrs: mustprogress nounwind uwtable
define hidden void @_ZN10GCStatInfo5clearEv(ptr noundef nonnull align 8 dereferenceable(44) %0) #1 align 2 {
  %2 = alloca ptr, align 8
  %3 = alloca i32, align 4
  %4 = alloca i32, align 4
  store ptr %0, ptr %2, align 8
  %5 = load ptr, ptr %2, align 8
  %6 = getelementptr inbounds %class.GCStatInfo, ptr %5, i32 0, i32 0
  store i64 0, ptr %6, align 8
  %7 = getelementptr inbounds %class.GCStatInfo, ptr %5, i32 0, i32 1
  store i64 0, ptr %7, align 8
  %8 = getelementptr inbounds %class.GCStatInfo, ptr %5, i32 0, i32 2
  store i64 0, ptr %8, align 8
  store i32 0, ptr %3, align 4
  br label %9

9:                                                ; preds = %20, %1
  %10 = load i32, ptr %3, align 4
  %11 = getelementptr inbounds %class.GCStatInfo, ptr %5, i32 0, i32 5
  %12 = load i32, ptr %11, align 8
  %13 = icmp slt i32 %10, %12
  br i1 %13, label %14, label %23

14:                                               ; preds = %9
  %15 = getelementptr inbounds %class.GCStatInfo, ptr %5, i32 0, i32 3
  %16 = load ptr, ptr %15, align 8
  %17 = load i32, ptr %3, align 4
  %18 = sext i32 %17 to i64
  %19 = getelementptr inbounds %class.MemoryUsage, ptr %16, i64 %18
  call void @_ZN11MemoryUsageC2Ev(ptr noundef nonnull align 8 dereferenceable(32) %19)
  br label %20

20:                                               ; preds = %14
  %21 = load i32, ptr %3, align 4
  %22 = add nsw i32 %21, 1
  store i32 %22, ptr %3, align 4
  br label %9, !llvm.loop !6

23:                                               ; preds = %9
  store i32 0, ptr %4, align 4
  br label %24

24:                                               ; preds = %35, %23
  %25 = load i32, ptr %4, align 4
  %26 = getelementptr inbounds %class.GCStatInfo, ptr %5, i32 0, i32 5
  %27 = load i32, ptr %26, align 8
  %28 = icmp slt i32 %25, %27
  br i1 %28, label %29, label %38

29:                                               ; preds = %24
  %30 = getelementptr inbounds %class.GCStatInfo, ptr %5, i32 0, i32 4
  %31 = load ptr, ptr %30, align 8
  %32 = load i32, ptr %4, align 4
  %33 = sext i32 %32 to i64
  %34 = getelementptr inbounds %class.MemoryUsage, ptr %31, i64 %33
  call void @_ZN11MemoryUsageC2Ev(ptr noundef nonnull align 8 dereferenceable(32) %34)
  br label %35

35:                                               ; preds = %29
  %36 = load i32, ptr %4, align 4
  %37 = add nsw i32 %36, 1
  store i32 %37, ptr %4, align 4
  br label %24, !llvm.loop !8

38:                                               ; preds = %24
  ret void
}

; Function Attrs: mustprogress nounwind uwtable
define hidden void @_ZN10GCStatInfoC2Ei(ptr noundef nonnull align 8 dereferenceable(44) %0, i32 noundef %1) unnamed_addr #1 align 2 {
  %3 = alloca ptr, align 8
  %4 = alloca i32, align 4
  store ptr %0, ptr %3, align 8
  store i32 %1, ptr %4, align 4
  %5 = load ptr, ptr %3, align 8
  %6 = load i32, ptr %4, align 4
  %7 = sext i32 %6 to i64
  %8 = mul i64 %7, 32
  %9 = call noundef ptr @_Z12AllocateHeapm8MEMFLAGSN17AllocFailStrategy13AllocFailEnumE(i64 noundef %8, i8 noundef zeroext 9, i32 noundef 0)
  %10 = getelementptr inbounds %class.GCStatInfo, ptr %5, i32 0, i32 3
  store ptr %9, ptr %10, align 8
  %11 = load i32, ptr %4, align 4
  %12 = sext i32 %11 to i64
  %13 = mul i64 %12, 32
  %14 = call noundef ptr @_Z12AllocateHeapm8MEMFLAGSN17AllocFailStrategy13AllocFailEnumE(i64 noundef %13, i8 noundef zeroext 9, i32 noundef 0)
  %15 = getelementptr inbounds %class.GCStatInfo, ptr %5, i32 0, i32 4
  store ptr %14, ptr %15, align 8
  %16 = load i32, ptr %4, align 4
  %17 = getelementptr inbounds %class.GCStatInfo, ptr %5, i32 0, i32 5
  store i32 %16, ptr %17, align 8
  call void @_ZN10GCStatInfo5clearEv(ptr noundef nonnull align 8 dereferenceable(44) %5)
  ret void
}