; Function Attrs: mustprogress nounwind uwtable
define hidden void @_ZN10GCStatInfoC2Ei(ptr nocapture noundef nonnull align 8 dereferenceable(44) %0, i32 noundef %1) unnamed_addr #2 align 2 {
  %3 = sext i32 %1 to i64
  %4 = shl nsw i64 %3, 5
  %5 = tail call noundef ptr @_Z12AllocateHeapm8MEMFLAGSN17AllocFailStrategy13AllocFailEnumE(i64 noundef %4, i8 noundef zeroext 9, i32 noundef 0) #13
  %6 = getelementptr inbounds i8, ptr %0, i64 24
  store ptr %5, ptr %6, align 8
  %7 = tail call noundef ptr @_Z12AllocateHeapm8MEMFLAGSN17AllocFailStrategy13AllocFailEnumE(i64 noundef %4, i8 noundef zeroext 9, i32 noundef 0) #13
  %8 = getelementptr inbounds i8, ptr %0, i64 32
  store ptr %7, ptr %8, align 8
  %9 = getelementptr inbounds i8, ptr %0, i64 40
  store i32 %1, ptr %9, align 8
  tail call void @llvm.memset.p0.i64(ptr noundef nonnull align 8 dereferenceable(24) %0, i8 0, i64 24, i1 false)
  %10 = icmp sgt i32 %1, 0
  br i1 %10, label %.lr.ph.i, label %_ZN10GCStatInfo5clearEv.exit

.preheader.i:                                     ; preds = %.lr.ph.i
  %11 = icmp sgt i32 %14, 0
  br i1 %11, label %.lr.ph9.i, label %_ZN10GCStatInfo5clearEv.exit

.lr.ph.i:                                         ; preds = %2, %.lr.ph.i
  %indvars.iv.i = phi i64 [ %indvars.iv.next.i, %.lr.ph.i ], [ 0, %2 ]
  %12 = load ptr, ptr %6, align 8
  %13 = getelementptr inbounds %class.MemoryUsage, ptr %12, i64 %indvars.iv.i
  tail call void @llvm.memset.p0.i64(ptr noundef nonnull align 8 dereferenceable(32) %13, i8 0, i64 32, i1 false)
  %indvars.iv.next.i = add nuw nsw i64 %indvars.iv.i, 1
  %14 = load i32, ptr %9, align 8
  %15 = sext i32 %14 to i64
  %16 = icmp slt i64 %indvars.iv.next.i, %15
  br i1 %16, label %.lr.ph.i, label %.preheader.i, !llvm.loop !7

.lr.ph9.i:                                        ; preds = %.preheader.i, %.lr.ph9.i
  %indvars.iv11.i = phi i64 [ %indvars.iv.next12.i, %.lr.ph9.i ], [ 0, %.preheader.i ]
  %17 = load ptr, ptr %8, align 8
  %18 = getelementptr inbounds %class.MemoryUsage, ptr %17, i64 %indvars.iv11.i
  tail call void @llvm.memset.p0.i64(ptr noundef nonnull align 8 dereferenceable(32) %18, i8 0, i64 32, i1 false)
  %indvars.iv.next12.i = add nuw nsw i64 %indvars.iv11.i, 1
  %19 = load i32, ptr %9, align 8
  %20 = sext i32 %19 to i64
  %21 = icmp slt i64 %indvars.iv.next12.i, %20
  br i1 %21, label %.lr.ph9.i, label %_ZN10GCStatInfo5clearEv.exit, !llvm.loop !9

_ZN10GCStatInfo5clearEv.exit:                     ; preds = %.lr.ph9.i, %2, %.preheader.i
  ret void
}